; ModuleID = '38/1389.c'
source_filename = "38/1389.c"
target datalayout = "e-m:e-p270:32:32-p271:32:32-p272:64:64-i64:64-f80:128-n8:16:32:64-S128"
target triple = "x86_64-pc-linux-gnu"

@.str = private unnamed_addr constant [3 x i8] c"%d\00", align 1
@.str.1 = private unnamed_addr constant [4 x i8] c"%lf\00", align 1
@.str.2 = private unnamed_addr constant [7 x i8] c"%.5lf\0A\00", align 1

; Function Attrs: noinline nounwind uwtable
define dso_local i32 @main() #0 {
  %1 = alloca i32, align 4
  %2 = alloca i32, align 4
  %3 = alloca i32, align 4
  %4 = alloca i32, align 4
  %5 = alloca i32, align 4
  %6 = alloca [50 x [100 x double]], align 16
  %7 = alloca [50 x double], align 16
  %8 = alloca [50 x double], align 16
  %9 = alloca [50 x double], align 16
  %10 = alloca [50 x double], align 16
  %11 = alloca i32, align 4
  store i32 0, i32* %1, align 4
  %12 = call i32 (i8*, ...) @__isoc99_scanf(i8* getelementptr inbounds ([3 x i8], [3 x i8]* @.str, i64 0, i64 0), i32* %2)
  store i32 0, i32* %4, align 4
  br label %13

13:                                               ; preds = %128, %0
  %14 = load i32, i32* %4, align 4
  %15 = load i32, i32* %2, align 4
  %16 = icmp slt i32 %14, %15
  br i1 %16, label %17, label %131

17:                                               ; preds = %13
  %18 = load i32, i32* %4, align 4
  %19 = sext i32 %18 to i64
  %20 = getelementptr inbounds [50 x double], [50 x double]* %9, i64 0, i64 %19
  store double 0.000000e+00, double* %20, align 8
  %21 = load i32, i32* %4, align 4
  %22 = sext i32 %21 to i64
  %23 = getelementptr inbounds [50 x double], [50 x double]* %8, i64 0, i64 %22
  store double 0.000000e+00, double* %23, align 8
  %24 = load i32, i32* %4, align 4
  %25 = sext i32 %24 to i64
  %26 = getelementptr inbounds [50 x double], [50 x double]* %7, i64 0, i64 %25
  store double 0.000000e+00, double* %26, align 8
  %27 = load i32, i32* %4, align 4
  %28 = sext i32 %27 to i64
  %29 = getelementptr inbounds [50 x double], [50 x double]* %10, i64 0, i64 %28
  store double 0.000000e+00, double* %29, align 8
  %30 = call i32 (i8*, ...) @__isoc99_scanf(i8* getelementptr inbounds ([3 x i8], [3 x i8]* @.str, i64 0, i64 0), i32* %3)
  store i32 0, i32* %5, align 4
  br label %31

31:                                               ; preds = %43, %17
  %32 = load i32, i32* %5, align 4
  %33 = load i32, i32* %3, align 4
  %34 = icmp slt i32 %32, %33
  br i1 %34, label %35, label %46

35:                                               ; preds = %31
  %36 = load i32, i32* %4, align 4
  %37 = sext i32 %36 to i64
  %38 = getelementptr inbounds [50 x [100 x double]], [50 x [100 x double]]* %6, i64 0, i64 %37
  %39 = load i32, i32* %5, align 4
  %40 = sext i32 %39 to i64
  %41 = getelementptr inbounds [100 x double], [100 x double]* %38, i64 0, i64 %40
  %42 = call i32 (i8*, ...) @__isoc99_scanf(i8* getelementptr inbounds ([4 x i8], [4 x i8]* @.str.1, i64 0, i64 0), double* %41)
  br label %43

43:                                               ; preds = %35
  %44 = load i32, i32* %5, align 4
  %45 = add nsw i32 %44, 1
  store i32 %45, i32* %5, align 4
  br label %31

46:                                               ; preds = %31
  store i32 0, i32* %5, align 4
  br label %47

47:                                               ; preds = %64, %46
  %48 = load i32, i32* %5, align 4
  %49 = load i32, i32* %3, align 4
  %50 = icmp slt i32 %48, %49
  br i1 %50, label %51, label %67

51:                                               ; preds = %47
  %52 = load i32, i32* %4, align 4
  %53 = sext i32 %52 to i64
  %54 = getelementptr inbounds [50 x [100 x double]], [50 x [100 x double]]* %6, i64 0, i64 %53
  %55 = load i32, i32* %5, align 4
  %56 = sext i32 %55 to i64
  %57 = getelementptr inbounds [100 x double], [100 x double]* %54, i64 0, i64 %56
  %58 = load double, double* %57, align 8
  %59 = load i32, i32* %4, align 4
  %60 = sext i32 %59 to i64
  %61 = getelementptr inbounds [50 x double], [50 x double]* %9, i64 0, i64 %60
  %62 = load double, double* %61, align 8
  %63 = fadd double %62, %58
  store double %63, double* %61, align 8
  br label %64

64:                                               ; preds = %51
  %65 = load i32, i32* %5, align 4
  %66 = add nsw i32 %65, 1
  store i32 %66, i32* %5, align 4
  br label %47

67:                                               ; preds = %47
  %68 = load i32, i32* %4, align 4
  %69 = sext i32 %68 to i64
  %70 = getelementptr inbounds [50 x double], [50 x double]* %9, i64 0, i64 %69
  %71 = load double, double* %70, align 8
  %72 = load i32, i32* %3, align 4
  %73 = sitofp i32 %72 to double
  %74 = fdiv double %71, %73
  %75 = load i32, i32* %4, align 4
  %76 = sext i32 %75 to i64
  %77 = getelementptr inbounds [50 x double], [50 x double]* %7, i64 0, i64 %76
  store double %74, double* %77, align 8
  store i32 0, i32* %5, align 4
  br label %78

78:                                               ; preds = %113, %67
  %79 = load i32, i32* %5, align 4
  %80 = load i32, i32* %3, align 4
  %81 = icmp slt i32 %79, %80
  br i1 %81, label %82, label %116

82:                                               ; preds = %78
  %83 = load i32, i32* %4, align 4
  %84 = sext i32 %83 to i64
  %85 = getelementptr inbounds [50 x [100 x double]], [50 x [100 x double]]* %6, i64 0, i64 %84
  %86 = load i32, i32* %5, align 4
  %87 = sext i32 %86 to i64
  %88 = getelementptr inbounds [100 x double], [100 x double]* %85, i64 0, i64 %87
  %89 = load double, double* %88, align 8
  %90 = load i32, i32* %4, align 4
  %91 = sext i32 %90 to i64
  %92 = getelementptr inbounds [50 x double], [50 x double]* %7, i64 0, i64 %91
  %93 = load double, double* %92, align 8
  %94 = fsub double %89, %93
  %95 = load i32, i32* %4, align 4
  %96 = sext i32 %95 to i64
  %97 = getelementptr inbounds [50 x [100 x double]], [50 x [100 x double]]* %6, i64 0, i64 %96
  %98 = load i32, i32* %5, align 4
  %99 = sext i32 %98 to i64
  %100 = getelementptr inbounds [100 x double], [100 x double]* %97, i64 0, i64 %99
  %101 = load double, double* %100, align 8
  %102 = load i32, i32* %4, align 4
  %103 = sext i32 %102 to i64
  %104 = getelementptr inbounds [50 x double], [50 x double]* %7, i64 0, i64 %103
  %105 = load double, double* %104, align 8
  %106 = fsub double %101, %105
  %107 = fmul double %94, %106
  %108 = load i32, i32* %4, align 4
  %109 = sext i32 %108 to i64
  %110 = getelementptr inbounds [50 x double], [50 x double]* %10, i64 0, i64 %109
  %111 = load double, double* %110, align 8
  %112 = fadd double %111, %107
  store double %112, double* %110, align 8
  br label %113

113:                                              ; preds = %82
  %114 = load i32, i32* %5, align 4
  %115 = add nsw i32 %114, 1
  store i32 %115, i32* %5, align 4
  br label %78

116:                                              ; preds = %78
  %117 = load i32, i32* %4, align 4
  %118 = sext i32 %117 to i64
  %119 = getelementptr inbounds [50 x double], [50 x double]* %10, i64 0, i64 %118
  %120 = load double, double* %119, align 8
  %121 = load i32, i32* %3, align 4
  %122 = sitofp i32 %121 to double
  %123 = fdiv double %120, %122
  %124 = call double @sqrt(double %123) #3
  %125 = load i32, i32* %4, align 4
  %126 = sext i32 %125 to i64
  %127 = getelementptr inbounds [50 x double], [50 x double]* %8, i64 0, i64 %126
  store double %124, double* %127, align 8
  br label %128

128:                                              ; preds = %116
  %129 = load i32, i32* %4, align 4
  %130 = add nsw i32 %129, 1
  store i32 %130, i32* %4, align 4
  br label %13

131:                                              ; preds = %13
  store i32 0, i32* %4, align 4
  br label %132

132:                                              ; preds = %142, %131
  %133 = load i32, i32* %4, align 4
  %134 = load i32, i32* %2, align 4
  %135 = icmp slt i32 %133, %134
  br i1 %135, label %136, label %145

136:                                              ; preds = %132
  %137 = load i32, i32* %4, align 4
  %138 = sext i32 %137 to i64
  %139 = getelementptr inbounds [50 x double], [50 x double]* %8, i64 0, i64 %138
  %140 = load double, double* %139, align 8
  %141 = call i32 (i8*, ...) @printf(i8* getelementptr inbounds ([7 x i8], [7 x i8]* @.str.2, i64 0, i64 0), double %140)
  br label %142

142:                                              ; preds = %136
  %143 = load i32, i32* %4, align 4
  %144 = add nsw i32 %143, 1
  store i32 %144, i32* %4, align 4
  br label %132

145:                                              ; preds = %132
  %146 = call i32 (i8*, ...) @__isoc99_scanf(i8* getelementptr inbounds ([3 x i8], [3 x i8]* @.str, i64 0, i64 0), i32* %11)
  ret i32 0
}

declare dso_local i32 @__isoc99_scanf(i8*, ...) #1

; Function Attrs: nounwind
declare dso_local double @sqrt(double) #2

declare dso_local i32 @printf(i8*, ...) #1


!llvm.module.flags = !{!0}
!llvm.ident = !{!1}

!0 = !{i32 1, !"wchar_size", i32 4}
!1 = !{!"clang version 10.0.0-4ubuntu1 "}
